target datalayout = "e-m:e-p270:32:32-p271:32:32-p272:64:64-i64:64-i128:128-f80:128-n8:16:32:64-S128"
target triple = "x86_64-pc-linux-gnu"

%"struct.std::once_flag" = type { i32 }
%class.anon = type { ptr }
%"class.llvm::AArch64RegisterBankInfo" = type <{ %"class.llvm::AArch64GenRegisterBankInfo", i32, [4 x i8] }>
%"class.llvm::AArch64GenRegisterBankInfo" = type { %"class.llvm::RegisterBankInfo" }
%"class.llvm::RegisterBankInfo" = type { ptr, ptr, i32, ptr, i32, [4 x i8], %"class.llvm::DenseMap", %"class.llvm::DenseMap.0", %"class.llvm::DenseMap.3", %"class.llvm::DenseMap.6", %"class.llvm::DenseMap.9" }
%"class.llvm::DenseMap" = type <{ ptr, i32, i32, i32, [4 x i8] }>
%"class.llvm::DenseMap.0" = type <{ ptr, i32, i32, i32, [4 x i8] }>
%"class.llvm::DenseMap.3" = type <{ ptr, i32, i32, i32, [4 x i8] }>
%"class.llvm::DenseMap.6" = type <{ ptr, i32, i32, i32, [4 x i8] }>
%"class.llvm::DenseMap.9" = type <{ ptr, i32, i32, i32, [4 x i8] }>
%class.anon.302 = type { ptr }
%"struct.std::once_flag::_Prepare_execution" = type { i8 }
%class.anon.303 = type { i8 }

@_ZN4llvm26AArch64GenRegisterBankInfo8RegBanksE = global [3 x ptr] [ptr @_ZN4llvm7AArch64L9CCRegBankE, ptr @_ZN4llvm7AArch64L10FPRRegBankE, ptr @_ZN4llvm7AArch64L10GPRRegBankE], align 16
@_ZN4llvm26AArch64GenRegisterBankInfo5SizesE = constant [3 x i32] [i32 32, i32 512, i32 128], align 4
@_ZZN4llvm23AArch64RegisterBankInfoC1ERKNS_18TargetRegisterInfoEE26InitializeRegisterBankFlag = internal global %"struct.std::once_flag" zeroinitializer, align 4
@_ZZN4llvm23AArch64RegisterBankInfoC1ERKNS_18TargetRegisterInfoEE26InitializeRegisterBankOnce = internal global %class.anon zeroinitializer, align 8
@_ZGVZN4llvm23AArch64RegisterBankInfoC1ERKNS_18TargetRegisterInfoEE26InitializeRegisterBankOnce = internal global i64 0, align 8
@_ZSt15__once_callable = external thread_local global ptr, align 8
@_ZSt11__once_call = external thread_local global ptr, align 8

; Function Attrs: mustprogress nounwind uwtable
define internal noundef i32 @_ZL18__gthread_active_pv() #0 {
  ret i32 1
}

; Function Attrs: mustprogress nounwind uwtable
define internal noundef ptr @"_ZZNSt9once_flag18_Prepare_executionC1IZSt9call_onceIRZN4llvm23AArch64RegisterBankInfoC1ERKNS3_18TargetRegisterInfoEE3$_0JEEvRS_OT_DpOT0_EUlvE_EERSB_ENKUlvE_cvPFvvEEv"(ptr noundef nonnull align 1 dereferenceable(1) %0) #0 align 2 {
  %2 = alloca ptr, align 8
  store ptr %0, ptr %2, align 8
  ret ptr @"_ZZNSt9once_flag18_Prepare_executionC1IZSt9call_onceIRZN4llvm23AArch64RegisterBankInfoC1ERKNS3_18TargetRegisterInfoEE3$_0JEEvRS_OT_DpOT0_EUlvE_EERSB_ENUlvE_8__invokeEv"
}

; Function Attrs: mustprogress nounwind uwtable
define linkonce_odr hidden void @_ZNSt9once_flag18_Prepare_executionD2Ev(ptr noundef nonnull align 1 dereferenceable(1) %0) unnamed_addr #0 comdat align 2 {
  %2 = alloca ptr, align 8
  store ptr %0, ptr %2, align 8
  %3 = call align 8 ptr @llvm.threadlocal.address.p0(ptr align 8 @_ZSt15__once_callable)
  store ptr null, ptr %3, align 8
  %4 = call align 8 ptr @llvm.threadlocal.address.p0(ptr align 8 @_ZSt11__once_call)
  store ptr null, ptr %4, align 8
  ret void
}

; Function Attrs: mustprogress nounwind uwtable
define internal noundef i32 @_ZL14__gthread_oncePiPFvvE(ptr noundef %0, ptr noundef %1) #0 {
  %3 = alloca i32, align 4
  %4 = alloca ptr, align 8
  %5 = alloca ptr, align 8
  store ptr %0, ptr %4, align 8
  store ptr %1, ptr %5, align 8
  %6 = call noundef i32 @_ZL18__gthread_active_pv()
  %7 = icmp ne i32 %6, 0
  br i1 %7, label %8, label %12

8:                                                ; preds = %2
  %9 = load ptr, ptr %4, align 8
  %10 = load ptr, ptr %5, align 8
  %11 = call i32 @pthread_once(ptr noundef %9, ptr noundef %10)
  store i32 %11, ptr %3, align 4
  br label %13

12:                                               ; preds = %2
  store i32 -1, ptr %3, align 4
  br label %13

13:                                               ; preds = %12, %8
  %14 = load i32, ptr %3, align 4
  ret i32 %14
}

; Function Attrs: mustprogress nounwind uwtable
define internal void @"_ZNSt9once_flag18_Prepare_executionC2IZSt9call_onceIRZN4llvm23AArch64RegisterBankInfoC1ERKNS3_18TargetRegisterInfoEE3$_0JEEvRS_OT_DpOT0_EUlvE_EERSB_"(ptr noundef nonnull align 1 dereferenceable(1) %0, ptr noundef nonnull align 8 dereferenceable(8) %1) unnamed_addr #0 align 2 {
  %3 = alloca ptr, align 8
  %4 = alloca ptr, align 8
  %5 = alloca %class.anon.303, align 1
  store ptr %0, ptr %3, align 8
  store ptr %1, ptr %4, align 8
  %6 = load ptr, ptr %4, align 8
  %7 = call align 8 ptr @llvm.threadlocal.address.p0(ptr align 8 @_ZSt15__once_callable)
  store ptr %6, ptr %7, align 8
  %8 = call noundef ptr @"_ZZNSt9once_flag18_Prepare_executionC1IZSt9call_onceIRZN4llvm23AArch64RegisterBankInfoC1ERKNS3_18TargetRegisterInfoEE3$_0JEEvRS_OT_DpOT0_EUlvE_EERSB_ENKUlvE_cvPFvvEEv"(ptr noundef nonnull align 1 dereferenceable(1) %5) #3
  %9 = call align 8 ptr @llvm.threadlocal.address.p0(ptr align 8 @_ZSt11__once_call)
  store ptr %8, ptr %9, align 8
  ret void
}

; Function Attrs: mustprogress nounwind uwtable
define internal void @"_ZSt9call_onceIRZN4llvm23AArch64RegisterBankInfoC1ERKNS0_18TargetRegisterInfoEE3$_0JEEvRSt9once_flagOT_DpOT0_"(ptr noundef nonnull align 4 dereferenceable(4) %0, ptr noundef nonnull align 8 dereferenceable(8) %1) #0 {
  %3 = alloca ptr, align 8
  %4 = alloca ptr, align 8
  %5 = alloca %class.anon.302, align 8
  %6 = alloca %"struct.std::once_flag::_Prepare_execution", align 1
  %7 = alloca i32, align 4
  store ptr %0, ptr %3, align 8
  store ptr %1, ptr %4, align 8
  %8 = getelementptr inbounds nuw %class.anon.302, ptr %5, i32 0, i32 0
  %9 = load ptr, ptr %4, align 8
  store ptr %9, ptr %8, align 8
  call void @"_ZNSt9once_flag18_Prepare_executionC2IZSt9call_onceIRZN4llvm23AArch64RegisterBankInfoC1ERKNS3_18TargetRegisterInfoEE3$_0JEEvRS_OT_DpOT0_EUlvE_EERSB_"(ptr noundef nonnull align 1 dereferenceable(1) %6, ptr noundef nonnull align 8 dereferenceable(8) %5)
  %10 = load ptr, ptr %3, align 8
  %11 = getelementptr inbounds nuw %"struct.std::once_flag", ptr %10, i32 0, i32 0
  %12 = call noundef i32 @_ZL14__gthread_oncePiPFvvE(ptr noundef %11, ptr noundef @__once_proxy)
  store i32 %12, ptr %7, align 4
  %13 = load i32, ptr %7, align 4
  %14 = icmp ne i32 %13, 0
  br i1 %14, label %15, label %17

15:                                               ; preds = %2
  %16 = load i32, ptr %7, align 4
  call void @_ZSt20__throw_system_errori(i32 noundef %16) #10
  unreachable

17:                                               ; preds = %2
  call void @_ZNSt9once_flag18_Prepare_executionD2Ev(ptr noundef nonnull align 1 dereferenceable(1) %6) #3
  ret void
}

; Function Attrs: mustprogress nounwind uwtable
define internal void @"_ZN4llvm9call_onceIRZNS_23AArch64RegisterBankInfoC1ERKNS_18TargetRegisterInfoEE3$_0JEEEvRSt9once_flagOT_DpOT0_"(ptr noundef nonnull align 4 dereferenceable(4) %0, ptr noundef nonnull align 8 dereferenceable(8) %1) #0 {
  %3 = alloca ptr, align 8
  %4 = alloca ptr, align 8
  store ptr %0, ptr %3, align 8
  store ptr %1, ptr %4, align 8
  %5 = load ptr, ptr %3, align 8
  %6 = load ptr, ptr %4, align 8
  call void @"_ZSt9call_onceIRZN4llvm23AArch64RegisterBankInfoC1ERKNS0_18TargetRegisterInfoEE3$_0JEEvRSt9once_flagOT_DpOT0_"(ptr noundef nonnull align 4 dereferenceable(4) %5, ptr noundef nonnull align 8 dereferenceable(8) %6)
  ret void
}

; Function Attrs: mustprogress nounwind uwtable
define dso_local void @_ZN4llvm26AArch64GenRegisterBankInfoC2Ej(ptr noundef nonnull align 8 dereferenceable(160) %0, i32 noundef %1) unnamed_addr #0 align 2 {
  %3 = alloca ptr, align 8
  %4 = alloca i32, align 4
  store ptr %0, ptr %3, align 8
  store i32 %1, ptr %4, align 4
  %5 = load ptr, ptr %3, align 8
  %6 = load i32, ptr %4, align 4
  call void @_ZN4llvm16RegisterBankInfoC2EPPKNS_12RegisterBankEjPKjj(ptr noundef nonnull align 8 dereferenceable(160) %5, ptr noundef @_ZN4llvm26AArch64GenRegisterBankInfo8RegBanksE, i32 noundef 3, ptr noundef @_ZN4llvm26AArch64GenRegisterBankInfo5SizesE, i32 noundef %6)
  store ptr getelementptr inbounds inrange(-16, 72) ({ [11 x ptr] }, ptr @_ZTVN4llvm26AArch64GenRegisterBankInfoE, i32 0, i32 0, i32 2), ptr %5, align 8
  ret void
}

; Function Attrs: mustprogress nounwind uwtable
define dso_local void @_ZN4llvm23AArch64RegisterBankInfoC2ERKNS_18TargetRegisterInfoE(ptr noundef nonnull align 8 dereferenceable(168) %0, ptr noundef nonnull align 8 dereferenceable(308) %1) unnamed_addr #0 align 2 {
  %3 = alloca ptr, align 8
  %4 = alloca ptr, align 8
  store ptr %0, ptr %3, align 8
  store ptr %1, ptr %4, align 8
  %5 = load ptr, ptr %3, align 8
  call void @_ZN4llvm26AArch64GenRegisterBankInfoC2Ej(ptr noundef nonnull align 8 dereferenceable(160) %5, i32 noundef 0)
  store ptr getelementptr inbounds inrange(-16, 72) ({ [11 x ptr] }, ptr @_ZTVN4llvm23AArch64RegisterBankInfoE, i32 0, i32 0, i32 2), ptr %5, align 8
  %6 = getelementptr inbounds nuw %"class.llvm::AArch64RegisterBankInfo", ptr %5, i32 0, i32 1
  store i32 2, ptr %6, align 8
  %7 = load atomic i8, ptr @_ZGVZN4llvm23AArch64RegisterBankInfoC1ERKNS_18TargetRegisterInfoEE26InitializeRegisterBankOnce acquire, align 8
  %8 = icmp eq i8 %7, 0
  br i1 %8, label %9, label %13, !prof !4

9:                                                ; preds = %2
  %10 = call i32 @__cxa_guard_acquire(ptr @_ZGVZN4llvm23AArch64RegisterBankInfoC1ERKNS_18TargetRegisterInfoEE26InitializeRegisterBankOnce) #3
  %11 = icmp ne i32 %10, 0
  br i1 %11, label %12, label %13

12:                                               ; preds = %9
  store ptr %5, ptr @_ZZN4llvm23AArch64RegisterBankInfoC1ERKNS_18TargetRegisterInfoEE26InitializeRegisterBankOnce, align 8
  call void @__cxa_guard_release(ptr @_ZGVZN4llvm23AArch64RegisterBankInfoC1ERKNS_18TargetRegisterInfoEE26InitializeRegisterBankOnce) #3
  br label %13

13:                                               ; preds = %12, %9, %2
  call void @"_ZN4llvm9call_onceIRZNS_23AArch64RegisterBankInfoC1ERKNS_18TargetRegisterInfoEE3$_0JEEEvRSt9once_flagOT_DpOT0_"(ptr noundef nonnull align 4 dereferenceable(4) @_ZZN4llvm23AArch64RegisterBankInfoC1ERKNS_18TargetRegisterInfoEE26InitializeRegisterBankFlag, ptr noundef nonnull align 8 dereferenceable(8) @_ZZN4llvm23AArch64RegisterBankInfoC1ERKNS_18TargetRegisterInfoEE26InitializeRegisterBankOnce)
  ret void
}