; Function Attrs: mustprogress nounwind uwtable
define dso_local void @_ZN4llvm23AArch64RegisterBankInfoC2ERKNS_18TargetRegisterInfoE(ptr noundef nonnull align 8 dereferenceable(168) %0, ptr nocapture nonnull readnone align 8 %1) unnamed_addr #0 align 2 {
  %3 = alloca %class.anon.302, align 8
  tail call void @_ZN4llvm16RegisterBankInfoC2EPPKNS_12RegisterBankEjPKjj(ptr noundef nonnull align 8 dereferenceable(160) %0, ptr noundef nonnull @_ZN4llvm26AArch64GenRegisterBankInfo8RegBanksE, i32 noundef 3, ptr noundef nonnull @_ZN4llvm26AArch64GenRegisterBankInfo5SizesE, i32 noundef 0) #15
  store ptr getelementptr inbounds inrange(-16, 72) (i8, ptr @_ZTVN4llvm23AArch64RegisterBankInfoE, i64 16), ptr %0, align 8
  %4 = getelementptr inbounds nuw i8, ptr %0, i64 160
  store i32 2, ptr %4, align 8
  %5 = load atomic i8, ptr @_ZGVZN4llvm23AArch64RegisterBankInfoC1ERKNS_18TargetRegisterInfoEE26InitializeRegisterBankOnce acquire, align 8
  %6 = icmp eq i8 %5, 0
  br i1 %6, label %7, label %10, !prof !4

7:                                                ; preds = %2
  %8 = tail call i32 @__cxa_guard_acquire(ptr nonnull @_ZGVZN4llvm23AArch64RegisterBankInfoC1ERKNS_18TargetRegisterInfoEE26InitializeRegisterBankOnce) #15
  %.not = icmp eq i32 %8, 0
  br i1 %.not, label %10, label %9

9:                                                ; preds = %7
  store ptr %0, ptr @_ZZN4llvm23AArch64RegisterBankInfoC1ERKNS_18TargetRegisterInfoEE26InitializeRegisterBankOnce, align 8
  tail call void @__cxa_guard_release(ptr nonnull @_ZGVZN4llvm23AArch64RegisterBankInfoC1ERKNS_18TargetRegisterInfoEE26InitializeRegisterBankOnce) #15
  br label %10

10:                                               ; preds = %9, %7, %2
  call void @llvm.lifetime.start.p0(i64 8, ptr nonnull %3)
  store ptr @_ZZN4llvm23AArch64RegisterBankInfoC1ERKNS_18TargetRegisterInfoEE26InitializeRegisterBankOnce, ptr %3, align 8
  %11 = tail call align 8 ptr @llvm.threadlocal.address.p0(ptr align 8 @_ZSt15__once_callable)
  store ptr %3, ptr %11, align 8
  %12 = call align 8 ptr @llvm.threadlocal.address.p0(ptr align 8 @_ZSt11__once_call)
  store ptr @"_ZZNSt9once_flag18_Prepare_executionC1IZSt9call_onceIRZN4llvm23AArch64RegisterBankInfoC1ERKNS3_18TargetRegisterInfoEE3$_0JEEvRS_OT_DpOT0_EUlvE_EERSB_ENUlvE_8__invokeEv", ptr %12, align 8
  %13 = call noundef i32 @pthread_once(ptr noundef nonnull @_ZZN4llvm23AArch64RegisterBankInfoC1ERKNS_18TargetRegisterInfoEE26InitializeRegisterBankFlag, ptr noundef nonnull @__once_proxy) #15
  %.not.i.i = icmp eq i32 %13, 0
  br i1 %.not.i.i, label %"_ZN4llvm9call_onceIRZNS_23AArch64RegisterBankInfoC1ERKNS_18TargetRegisterInfoEE3$_0JEEEvRSt9once_flagOT_DpOT0_.exit", label %14

14:                                               ; preds = %10
  call void @_ZSt20__throw_system_errori(i32 noundef %13) #16
  unreachable

"_ZN4llvm9call_onceIRZNS_23AArch64RegisterBankInfoC1ERKNS_18TargetRegisterInfoEE3$_0JEEEvRSt9once_flagOT_DpOT0_.exit": ; preds = %10
  store ptr null, ptr %11, align 8
  store ptr null, ptr %12, align 8
  call void @llvm.lifetime.end.p0(i64 8, ptr nonnull %3)
  ret void
}